target datalayout = "e-m:e-p270:32:32-p271:32:32-p272:64:64-i64:64-i128:128-f80:128-n8:16:32:64-S128"
target triple = "x86_64-pc-linux-gnu"

@getargs_keywords.keywords = internal global [6 x ptr] [ptr @.str.79, ptr @.str.80, ptr @.str.81, ptr @.str.82, ptr @.str.83, ptr null], align 16
@getargs_keywords.fmt = internal constant [20 x i8] c"(ii)i|(i(ii))(iii)i\00", align 16
@.str.84 = private unnamed_addr constant [11 x i8] c"iiiiiiiiii\00", align 1

; Function Attrs: nounwind uwtable
define internal ptr @getargs_keywords(ptr noundef %0, ptr noundef %1, ptr noundef %2) #0 {
  %4 = alloca ptr, align 8
  %5 = alloca ptr, align 8
  %6 = alloca ptr, align 8
  %7 = alloca ptr, align 8
  %8 = alloca [10 x i32], align 16
  %9 = alloca i32, align 4
  store ptr %0, ptr %5, align 8, !tbaa !3
  store ptr %1, ptr %6, align 8, !tbaa !3
  store ptr %2, ptr %7, align 8, !tbaa !3
  call void @llvm.lifetime.start.p0(i64 40, ptr %8) #9
  call void @llvm.memset.p0.i64(ptr align 16 %8, i8 -1, i64 40, i1 false)
  %10 = load ptr, ptr %6, align 8, !tbaa !3
  %11 = load ptr, ptr %7, align 8, !tbaa !3
  %12 = getelementptr [10 x i32], ptr %8, i64 0, i64 0
  %13 = getelementptr [10 x i32], ptr %8, i64 0, i64 1
  %14 = getelementptr [10 x i32], ptr %8, i64 0, i64 2
  %15 = getelementptr [10 x i32], ptr %8, i64 0, i64 3
  %16 = getelementptr [10 x i32], ptr %8, i64 0, i64 4
  %17 = getelementptr [10 x i32], ptr %8, i64 0, i64 5
  %18 = getelementptr [10 x i32], ptr %8, i64 0, i64 6
  %19 = getelementptr [10 x i32], ptr %8, i64 0, i64 7
  %20 = getelementptr [10 x i32], ptr %8, i64 0, i64 8
  %21 = getelementptr [10 x i32], ptr %8, i64 0, i64 9
  %22 = call i32 (ptr, ptr, ptr, ptr, ...) @PyArg_ParseTupleAndKeywords(ptr noundef %10, ptr noundef %11, ptr noundef @getargs_keywords.fmt, ptr noundef @getargs_keywords.keywords, ptr noundef %12, ptr noundef %13, ptr noundef %14, ptr noundef %15, ptr noundef %16, ptr noundef %17, ptr noundef %18, ptr noundef %19, ptr noundef %20, ptr noundef %21)
  %23 = icmp ne i32 %22, 0
  br i1 %23, label %25, label %24

24:                                               ; preds = %3
  store ptr null, ptr %4, align 8
  store i32 1, ptr %9, align 4
  br label %47

25:                                               ; preds = %3
  %26 = getelementptr [10 x i32], ptr %8, i64 0, i64 0
  %27 = load i32, ptr %26, align 16, !tbaa !9
  %28 = getelementptr [10 x i32], ptr %8, i64 0, i64 1
  %29 = load i32, ptr %28, align 4, !tbaa !9
  %30 = getelementptr [10 x i32], ptr %8, i64 0, i64 2
  %31 = load i32, ptr %30, align 8, !tbaa !9
  %32 = getelementptr [10 x i32], ptr %8, i64 0, i64 3
  %33 = load i32, ptr %32, align 4, !tbaa !9
  %34 = getelementptr [10 x i32], ptr %8, i64 0, i64 4
  %35 = load i32, ptr %34, align 16, !tbaa !9
  %36 = getelementptr [10 x i32], ptr %8, i64 0, i64 5
  %37 = load i32, ptr %36, align 4, !tbaa !9
  %38 = getelementptr [10 x i32], ptr %8, i64 0, i64 6
  %39 = load i32, ptr %38, align 8, !tbaa !9
  %40 = getelementptr [10 x i32], ptr %8, i64 0, i64 7
  %41 = load i32, ptr %40, align 4, !tbaa !9
  %42 = getelementptr [10 x i32], ptr %8, i64 0, i64 8
  %43 = load i32, ptr %42, align 16, !tbaa !9
  %44 = getelementptr [10 x i32], ptr %8, i64 0, i64 9
  %45 = load i32, ptr %44, align 4, !tbaa !9
  %46 = call ptr (ptr, ...) @Py_BuildValue(ptr noundef @.str.84, i32 noundef %27, i32 noundef %29, i32 noundef %31, i32 noundef %33, i32 noundef %35, i32 noundef %37, i32 noundef %39, i32 noundef %41, i32 noundef %43, i32 noundef %45)
  store ptr %46, ptr %4, align 8
  store i32 1, ptr %9, align 4
  br label %47

47:                                               ; preds = %25, %24
  call void @llvm.lifetime.end.p0(i64 40, ptr %8) #9
  %48 = load ptr, ptr %4, align 8
  ret ptr %48
}