; Function Attrs: nounwind uwtable
define internal ptr @getargs_keywords(ptr readnone captures(none) %0, ptr noundef %1, ptr noundef %2) #0 {
  %4 = alloca [10 x i32], align 16
  call void @llvm.lifetime.start.p0(i64 40, ptr nonnull %4) #7
  call void @llvm.memset.p0.i64(ptr noundef nonnull align 16 dereferenceable(40) %4, i8 -1, i64 40, i1 false)
  %5 = getelementptr inbounds nuw i8, ptr %4, i64 4
  %6 = getelementptr inbounds nuw i8, ptr %4, i64 8
  %7 = getelementptr inbounds nuw i8, ptr %4, i64 12
  %8 = getelementptr inbounds nuw i8, ptr %4, i64 16
  %9 = getelementptr inbounds nuw i8, ptr %4, i64 20
  %10 = getelementptr inbounds nuw i8, ptr %4, i64 24
  %11 = getelementptr inbounds nuw i8, ptr %4, i64 28
  %12 = getelementptr inbounds nuw i8, ptr %4, i64 32
  %13 = getelementptr inbounds nuw i8, ptr %4, i64 36
  %14 = call i32 (ptr, ptr, ptr, ptr, ...) @PyArg_ParseTupleAndKeywords(ptr noundef %1, ptr noundef %2, ptr noundef nonnull @getargs_keywords.fmt, ptr noundef nonnull @getargs_keywords.keywords, ptr noundef nonnull %4, ptr noundef nonnull %5, ptr noundef nonnull %6, ptr noundef nonnull %7, ptr noundef nonnull %8, ptr noundef nonnull %9, ptr noundef nonnull %10, ptr noundef nonnull %11, ptr noundef nonnull %12, ptr noundef nonnull %13) #7
  %.not = icmp eq i32 %14, 0
  br i1 %.not, label %27, label %15

15:                                               ; preds = %3
  %16 = load i32, ptr %4, align 16, !tbaa !6
  %17 = load i32, ptr %5, align 4, !tbaa !6
  %18 = load i32, ptr %6, align 8, !tbaa !6
  %19 = load i32, ptr %7, align 4, !tbaa !6
  %20 = load i32, ptr %8, align 16, !tbaa !6
  %21 = load i32, ptr %9, align 4, !tbaa !6
  %22 = load i32, ptr %10, align 8, !tbaa !6
  %23 = load i32, ptr %11, align 4, !tbaa !6
  %24 = load i32, ptr %12, align 16, !tbaa !6
  %25 = load i32, ptr %13, align 4, !tbaa !6
  %26 = call ptr (ptr, ...) @Py_BuildValue(ptr noundef nonnull @.str.84, i32 noundef %16, i32 noundef %17, i32 noundef %18, i32 noundef %19, i32 noundef %20, i32 noundef %21, i32 noundef %22, i32 noundef %23, i32 noundef %24, i32 noundef %25) #7
  br label %27

27:                                               ; preds = %3, %15
  %.0 = phi ptr [ %26, %15 ], [ null, %3 ]
  call void @llvm.lifetime.end.p0(i64 40, ptr nonnull %4) #7
  ret ptr %.0
}